target datalayout = "e-m:e-p270:32:32-p271:32:32-p272:64:64-i64:64-i128:128-f80:128-n8:16:32:64-S128"
target triple = "x86_64-pc-linux-gnu"

%struct.segment = type { i64, i64, i64 }

; Function Attrs: nounwind uwtable
define dso_local void @suggest_compaction_segment(ptr dead_on_unwind noalias writable sret(%struct.segment) align 8 %0, ptr noundef %1, i64 noundef %2, i8 noundef zeroext %3) #0 {
  %5 = alloca ptr, align 8
  %6 = alloca i64, align 8
  %7 = alloca i8, align 1
  %8 = alloca i64, align 8
  %9 = alloca i64, align 8
  %10 = alloca i32, align 4
  %11 = alloca i64, align 8
  store ptr %1, ptr %5, align 8, !tbaa !84
  store i64 %2, ptr %6, align 8, !tbaa !21
  store i8 %3, ptr %7, align 1, !tbaa !18
  call void @llvm.memset.p0.i64(ptr align 8 %0, i8 0, i64 24, i1 false)
  call void @llvm.lifetime.start.p0(i64 8, ptr %8) #10
  call void @llvm.lifetime.start.p0(i64 8, ptr %9) #10
  %12 = load i8, ptr %7, align 1, !tbaa !18
  %13 = icmp ne i8 %12, 0
  br i1 %13, label %15, label %14

14:                                               ; preds = %4
  store i8 2, ptr %7, align 1, !tbaa !18
  br label %15

15:                                               ; preds = %14, %4
  %16 = load i64, ptr %6, align 8, !tbaa !21
  %17 = icmp ule i64 %16, 1
  br i1 %17, label %18, label %19

18:                                               ; preds = %15
  store i32 1, ptr %10, align 4
  br label %85

19:                                               ; preds = %15
  %20 = load i64, ptr %6, align 8, !tbaa !21
  %21 = sub i64 %20, 1
  store i64 %21, ptr %9, align 8, !tbaa !21
  br label %22

22:                                               ; preds = %48, %19
  %23 = load i64, ptr %9, align 8, !tbaa !21
  %24 = icmp ugt i64 %23, 0
  br i1 %24, label %25, label %51

25:                                               ; preds = %22
  %26 = load ptr, ptr %5, align 8, !tbaa !84
  %27 = load i64, ptr %9, align 8, !tbaa !21
  %28 = sub i64 %27, 1
  %29 = getelementptr inbounds nuw i64, ptr %26, i64 %28
  %30 = load i64, ptr %29, align 8, !tbaa !21
  %31 = load ptr, ptr %5, align 8, !tbaa !84
  %32 = load i64, ptr %9, align 8, !tbaa !21
  %33 = getelementptr inbounds nuw i64, ptr %31, i64 %32
  %34 = load i64, ptr %33, align 8, !tbaa !21
  %35 = load i8, ptr %7, align 1, !tbaa !18
  %36 = zext i8 %35 to i64
  %37 = mul i64 %34, %36
  %38 = icmp ult i64 %30, %37
  br i1 %38, label %39, label %47

39:                                               ; preds = %25
  %40 = load i64, ptr %9, align 8, !tbaa !21
  %41 = add i64 %40, 1
  %42 = getelementptr inbounds nuw %struct.segment, ptr %0, i32 0, i32 1
  store i64 %41, ptr %42, align 8, !tbaa !90
  %43 = load ptr, ptr %5, align 8, !tbaa !84
  %44 = load i64, ptr %9, align 8, !tbaa !21
  %45 = getelementptr inbounds nuw i64, ptr %43, i64 %44
  %46 = load i64, ptr %45, align 8, !tbaa !21
  store i64 %46, ptr %8, align 8, !tbaa !21
  br label %51

47:                                               ; preds = %25
  br label %48

48:                                               ; preds = %47
  %49 = load i64, ptr %9, align 8, !tbaa !21
  %50 = add i64 %49, -1
  store i64 %50, ptr %9, align 8, !tbaa !21
  br label %22, !llvm.loop !139

51:                                               ; preds = %39, %22
  br label %52

52:                                               ; preds = %81, %51
  %53 = load i64, ptr %9, align 8, !tbaa !21
  %54 = icmp ugt i64 %53, 0
  br i1 %54, label %55, label %84

55:                                               ; preds = %52
  call void @llvm.lifetime.start.p0(i64 8, ptr %11) #10
  %56 = load i64, ptr %8, align 8, !tbaa !21
  store i64 %56, ptr %11, align 8, !tbaa !21
  %57 = load ptr, ptr %5, align 8, !tbaa !84
  %58 = load i64, ptr %9, align 8, !tbaa !21
  %59 = sub i64 %58, 1
  %60 = getelementptr inbounds nuw i64, ptr %57, i64 %59
  %61 = load i64, ptr %60, align 8, !tbaa !21
  %62 = load i64, ptr %8, align 8, !tbaa !21
  %63 = add i64 %62, %61
  store i64 %63, ptr %8, align 8, !tbaa !21
  %64 = load ptr, ptr %5, align 8, !tbaa !84
  %65 = load i64, ptr %9, align 8, !tbaa !21
  %66 = sub i64 %65, 1
  %67 = getelementptr inbounds nuw i64, ptr %64, i64 %66
  %68 = load i64, ptr %67, align 8, !tbaa !21
  %69 = load i64, ptr %11, align 8, !tbaa !21
  %70 = load i8, ptr %7, align 1, !tbaa !18
  %71 = zext i8 %70 to i64
  %72 = mul i64 %69, %71
  %73 = icmp ult i64 %68, %72
  br i1 %73, label %74, label %80

74:                                               ; preds = %55
  %75 = load i64, ptr %9, align 8, !tbaa !21
  %76 = sub i64 %75, 1
  %77 = getelementptr inbounds nuw %struct.segment, ptr %0, i32 0, i32 0
  store i64 %76, ptr %77, align 8, !tbaa !88
  %78 = load i64, ptr %8, align 8, !tbaa !21
  %79 = getelementptr inbounds nuw %struct.segment, ptr %0, i32 0, i32 2
  store i64 %78, ptr %79, align 8, !tbaa !140
  br label %80

80:                                               ; preds = %74, %55
  call void @llvm.lifetime.end.p0(i64 8, ptr %11) #10
  br label %81

81:                                               ; preds = %80
  %82 = load i64, ptr %9, align 8, !tbaa !21
  %83 = add i64 %82, -1
  store i64 %83, ptr %9, align 8, !tbaa !21
  br label %52, !llvm.loop !141

84:                                               ; preds = %52
  store i32 1, ptr %10, align 4
  br label %85

85:                                               ; preds = %84, %18
  call void @llvm.lifetime.end.p0(i64 8, ptr %9) #10
  call void @llvm.lifetime.end.p0(i64 8, ptr %8) #10
  ret void
}