; Function Attrs: nofree norecurse nosync nounwind memory(argmem: readwrite) uwtable
define dso_local void @suggest_compaction_segment(ptr dead_on_unwind noalias writable writeonly sret(%struct.segment) align 8 captures(none) initializes((0, 24)) %0, ptr noundef readonly captures(none) %1, i64 noundef %2, i8 noundef zeroext %3) local_unnamed_addr #10 {
  tail call void @llvm.memset.p0.i64(ptr noundef nonnull align 8 dereferenceable(24) %0, i8 0, i64 24, i1 false)
  %5 = icmp ult i64 %2, 2
  br i1 %5, label %25, label %.preheader

.preheader:                                       ; preds = %4
  %.not = icmp eq i8 %3, 0
  %spec.store.select = select i1 %.not, i8 2, i8 %3
  %invariant.gep = getelementptr i8, ptr %1, i64 -16
  %6 = zext i8 %spec.store.select to i64
  br label %7

7:                                                ; preds = %.preheader, %8
  %.0.in = phi i64 [ %.0, %8 ], [ %2, %.preheader ]
  %.0 = add i64 %.0.in, -1
  %.not27 = icmp eq i64 %.0, 0
  br i1 %.not27, label %.loopexit, label %8

8:                                                ; preds = %7
  %gep = getelementptr i64, ptr %invariant.gep, i64 %.0.in
  %9 = load i64, ptr %gep, align 8, !tbaa !12
  %10 = getelementptr inbounds nuw i64, ptr %1, i64 %.0
  %11 = load i64, ptr %10, align 8, !tbaa !12
  %12 = mul i64 %11, %6
  %13 = icmp ult i64 %9, %12
  br i1 %13, label %.lr.ph, label %7, !llvm.loop !85

.lr.ph:                                           ; preds = %8
  %14 = getelementptr inbounds nuw i8, ptr %0, i64 8
  store i64 %.0.in, ptr %14, align 8, !tbaa !129
  %15 = getelementptr inbounds nuw i8, ptr %0, i64 16
  br label %16

16:                                               ; preds = %.lr.ph, %16
  %17 = phi i64 [ 0, %.lr.ph ], [ %spec.select, %16 ]
  %.136 = phi i64 [ %.0, %.lr.ph ], [ %19, %16 ]
  %.12535 = phi i64 [ %11, %.lr.ph ], [ %22, %16 ]
  %18 = phi i64 [ 0, %.lr.ph ], [ %spec.select39, %16 ]
  %19 = add i64 %.136, -1
  %20 = getelementptr inbounds nuw i64, ptr %1, i64 %19
  %21 = load i64, ptr %20, align 8, !tbaa !12
  %22 = add i64 %21, %.12535
  %23 = mul i64 %.12535, %6
  %24 = icmp ult i64 %21, %23
  %spec.select = select i1 %24, i64 %22, i64 %17
  %spec.select39 = select i1 %24, i64 %19, i64 %18
  %.not28 = icmp eq i64 %19, 0
  br i1 %.not28, label %..loopexit_crit_edge, label %16, !llvm.loop !86

..loopexit_crit_edge:                             ; preds = %16
  store i64 %spec.select, ptr %15, align 8
  br label %.loopexit

.loopexit:                                        ; preds = %7, %..loopexit_crit_edge
  %.lcssa33 = phi i64 [ %spec.select39, %..loopexit_crit_edge ], [ 0, %7 ]
  store i64 %.lcssa33, ptr %0, align 8
  br label %25

25:                                               ; preds = %.loopexit, %4
  ret void
}